target datalayout = "e-m:e-p270:32:32-p271:32:32-p272:64:64-i64:64-i128:128-f80:128-n8:16:32:64-S128"
target triple = "x86_64-pc-linux-gnu"

%struct.dictIterator = type { ptr, i64, i32, i32, ptr, ptr, i64 }

; Function Attrs: nounwind uwtable
define dso_local void @dictInitIterator(ptr noundef %0, ptr noundef %1) #0 {
  %3 = alloca ptr, align 8
  %4 = alloca ptr, align 8
  store ptr %0, ptr %3, align 8, !tbaa !78
  store ptr %1, ptr %4, align 8, !tbaa !18
  %5 = load ptr, ptr %4, align 8, !tbaa !18
  %6 = load ptr, ptr %3, align 8, !tbaa !78
  %7 = getelementptr inbounds nuw %struct.dictIterator, ptr %6, i32 0, i32 0
  store ptr %5, ptr %7, align 8, !tbaa !80
  %8 = load ptr, ptr %3, align 8, !tbaa !78
  %9 = getelementptr inbounds nuw %struct.dictIterator, ptr %8, i32 0, i32 2
  store i32 0, ptr %9, align 8, !tbaa !82
  %10 = load ptr, ptr %3, align 8, !tbaa !78
  %11 = getelementptr inbounds nuw %struct.dictIterator, ptr %10, i32 0, i32 1
  store i64 -1, ptr %11, align 8, !tbaa !83
  %12 = load ptr, ptr %3, align 8, !tbaa !78
  %13 = getelementptr inbounds nuw %struct.dictIterator, ptr %12, i32 0, i32 3
  store i32 0, ptr %13, align 4, !tbaa !84
  %14 = load ptr, ptr %3, align 8, !tbaa !78
  %15 = getelementptr inbounds nuw %struct.dictIterator, ptr %14, i32 0, i32 4
  store ptr null, ptr %15, align 8, !tbaa !85
  %16 = load ptr, ptr %3, align 8, !tbaa !78
  %17 = getelementptr inbounds nuw %struct.dictIterator, ptr %16, i32 0, i32 5
  store ptr null, ptr %17, align 8, !tbaa !86
  ret void
}

; Function Attrs: nounwind uwtable
define dso_local ptr @dictGetIterator(ptr noundef %0) #0 {
  %2 = alloca ptr, align 8
  %3 = alloca ptr, align 8
  store ptr %0, ptr %2, align 8, !tbaa !18
  call void @llvm.lifetime.start.p0(i64 8, ptr %3) #14
  %4 = call noalias ptr @zmalloc(i64 noundef 48) #15
  store ptr %4, ptr %3, align 8, !tbaa !78
  %5 = load ptr, ptr %3, align 8, !tbaa !78
  %6 = load ptr, ptr %2, align 8, !tbaa !18
  call void @dictInitIterator(ptr noundef %5, ptr noundef %6)
  %7 = load ptr, ptr %3, align 8, !tbaa !78
  call void @llvm.lifetime.end.p0(i64 8, ptr %3) #14
  ret ptr %7
}

; Function Attrs: nounwind uwtable
define dso_local ptr @dictGetSafeIterator(ptr noundef %0) #0 {
  %2 = alloca ptr, align 8
  %3 = alloca ptr, align 8
  store ptr %0, ptr %2, align 8, !tbaa !18
  call void @llvm.lifetime.start.p0(i64 8, ptr %3) #14
  %4 = load ptr, ptr %2, align 8, !tbaa !18
  %5 = call ptr @dictGetIterator(ptr noundef %4)
  store ptr %5, ptr %3, align 8, !tbaa !78
  %6 = load ptr, ptr %3, align 8, !tbaa !78
  %7 = getelementptr inbounds nuw %struct.dictIterator, ptr %6, i32 0, i32 3
  store i32 1, ptr %7, align 4, !tbaa !84
  %8 = load ptr, ptr %3, align 8, !tbaa !78
  call void @llvm.lifetime.end.p0(i64 8, ptr %3) #14
  ret ptr %8
}