; Function Attrs: nounwind uwtable
define dso_local noalias noundef ptr @dictGetSafeIterator(ptr noundef %0) local_unnamed_addr #3 {
  %2 = tail call noalias dereferenceable_or_null(48) ptr @zmalloc(i64 noundef 48) #26
  store ptr %0, ptr %2, align 8, !tbaa !68
  %3 = getelementptr inbounds nuw i8, ptr %2, i64 16
  store i32 0, ptr %3, align 8, !tbaa !70
  %4 = getelementptr inbounds nuw i8, ptr %2, i64 8
  store i64 -1, ptr %4, align 8, !tbaa !71
  %5 = getelementptr inbounds nuw i8, ptr %2, i64 20
  %6 = getelementptr inbounds nuw i8, ptr %2, i64 24
  tail call void @llvm.memset.p0.i64(ptr noundef nonnull align 4 dereferenceable(20) %6, i8 0, i64 16, i1 false)
  store i32 1, ptr %5, align 4, !tbaa !72
  ret ptr %2
}